target datalayout = "e-m:e-p270:32:32-p271:32:32-p272:64:64-i64:64-i128:128-f80:128-n8:16:32:64-S128"
target triple = "x86_64-pc-linux-gnu"

%struct.lua_TValue = type { %union.Value, i32 }
%union.Value = type { ptr }

; Function Attrs: nounwind uwtable
define hidden i32 @luaK_stringK(ptr noundef %0, ptr noundef %1) #0 {
  %3 = alloca ptr, align 8
  %4 = alloca ptr, align 8
  %5 = alloca %struct.lua_TValue, align 8
  %6 = alloca ptr, align 8
  store ptr %0, ptr %3, align 8, !tbaa !4
  store ptr %1, ptr %4, align 8, !tbaa !44
  call void @llvm.lifetime.start.p0(i64 16, ptr %5) #6
  call void @llvm.lifetime.start.p0(i64 8, ptr %6) #6
  store ptr %5, ptr %6, align 8, !tbaa !45
  %7 = load ptr, ptr %4, align 8, !tbaa !44
  %8 = load ptr, ptr %6, align 8, !tbaa !45
  %9 = getelementptr inbounds nuw %struct.lua_TValue, ptr %8, i32 0, i32 0
  store ptr %7, ptr %9, align 8, !tbaa !46
  %10 = load ptr, ptr %6, align 8, !tbaa !45
  %11 = getelementptr inbounds nuw %struct.lua_TValue, ptr %10, i32 0, i32 1
  store i32 4, ptr %11, align 8, !tbaa !47
  call void @llvm.lifetime.end.p0(i64 8, ptr %6) #6
  %12 = load ptr, ptr %3, align 8, !tbaa !4
  %13 = call i32 @addk(ptr noundef %12, ptr noundef %5, ptr noundef %5)
  call void @llvm.lifetime.end.p0(i64 16, ptr %5) #6
  ret i32 %13
}